; ModuleID = '35/2366.c'
source_filename = "35/2366.c"
target datalayout = "e-m:e-p270:32:32-p271:32:32-p272:64:64-i64:64-f80:128-n8:16:32:64-S128"
target triple = "x86_64-pc-linux-gnu"

@a = common dso_local global [10 x [10 x i32]] zeroinitializer, align 16
@l = common dso_local global i32 0, align 4
@h = common dso_local global i32 0, align 4
@.str = private unnamed_addr constant [6 x i8] c"%d,%d\00", align 1
@.str.1 = private unnamed_addr constant [3 x i8] c"%d\00", align 1
@.str.2 = private unnamed_addr constant [6 x i8] c"%d+%d\00", align 1
@.str.3 = private unnamed_addr constant [3 x i8] c"No\00", align 1

; Function Attrs: noinline nounwind uwtable
define dso_local i32 @find1(i32 %0, i32 %1) #0 {
  %3 = alloca i32, align 4
  %4 = alloca i32, align 4
  %5 = alloca i32, align 4
  %6 = alloca i32, align 4
  %7 = alloca i32, align 4
  store i32 %0, i32* %4, align 4
  store i32 %1, i32* %5, align 4
  %8 = load i32, i32* %4, align 4
  %9 = sext i32 %8 to i64
  %10 = getelementptr inbounds [10 x [10 x i32]], [10 x [10 x i32]]* @a, i64 0, i64 %9
  %11 = load i32, i32* %5, align 4
  %12 = sext i32 %11 to i64
  %13 = getelementptr inbounds [10 x i32], [10 x i32]* %10, i64 0, i64 %12
  %14 = load i32, i32* %13, align 4
  store i32 %14, i32* %7, align 4
  store i32 0, i32* %6, align 4
  br label %15

15:                                               ; preds = %31, %2
  %16 = load i32, i32* %6, align 4
  %17 = load i32, i32* @l, align 4
  %18 = icmp slt i32 %16, %17
  br i1 %18, label %19, label %34

19:                                               ; preds = %15
  %20 = load i32, i32* %4, align 4
  %21 = sext i32 %20 to i64
  %22 = getelementptr inbounds [10 x [10 x i32]], [10 x [10 x i32]]* @a, i64 0, i64 %21
  %23 = load i32, i32* %6, align 4
  %24 = sext i32 %23 to i64
  %25 = getelementptr inbounds [10 x i32], [10 x i32]* %22, i64 0, i64 %24
  %26 = load i32, i32* %25, align 4
  %27 = load i32, i32* %7, align 4
  %28 = icmp sgt i32 %26, %27
  br i1 %28, label %29, label %30

29:                                               ; preds = %19
  store i32 1, i32* %3, align 4
  br label %35

30:                                               ; preds = %19
  br label %31

31:                                               ; preds = %30
  %32 = load i32, i32* %6, align 4
  %33 = add nsw i32 %32, 1
  store i32 %33, i32* %6, align 4
  br label %15

34:                                               ; preds = %15
  store i32 2, i32* %3, align 4
  br label %35

35:                                               ; preds = %34, %29
  %36 = load i32, i32* %3, align 4
  ret i32 %36
}

; Function Attrs: noinline nounwind uwtable
define dso_local i32 @find2(i32 %0, i32 %1) #0 {
  %3 = alloca i32, align 4
  %4 = alloca i32, align 4
  %5 = alloca i32, align 4
  %6 = alloca i32, align 4
  %7 = alloca i32, align 4
  store i32 %0, i32* %4, align 4
  store i32 %1, i32* %5, align 4
  %8 = load i32, i32* %4, align 4
  %9 = sext i32 %8 to i64
  %10 = getelementptr inbounds [10 x [10 x i32]], [10 x [10 x i32]]* @a, i64 0, i64 %9
  %11 = load i32, i32* %5, align 4
  %12 = sext i32 %11 to i64
  %13 = getelementptr inbounds [10 x i32], [10 x i32]* %10, i64 0, i64 %12
  %14 = load i32, i32* %13, align 4
  store i32 %14, i32* %7, align 4
  store i32 0, i32* %6, align 4
  br label %15

15:                                               ; preds = %31, %2
  %16 = load i32, i32* %6, align 4
  %17 = load i32, i32* @h, align 4
  %18 = icmp slt i32 %16, %17
  br i1 %18, label %19, label %34

19:                                               ; preds = %15
  %20 = load i32, i32* %6, align 4
  %21 = sext i32 %20 to i64
  %22 = getelementptr inbounds [10 x [10 x i32]], [10 x [10 x i32]]* @a, i64 0, i64 %21
  %23 = load i32, i32* %5, align 4
  %24 = sext i32 %23 to i64
  %25 = getelementptr inbounds [10 x i32], [10 x i32]* %22, i64 0, i64 %24
  %26 = load i32, i32* %25, align 4
  %27 = load i32, i32* %7, align 4
  %28 = icmp slt i32 %26, %27
  br i1 %28, label %29, label %30

29:                                               ; preds = %19
  store i32 3, i32* %3, align 4
  br label %35

30:                                               ; preds = %19
  br label %31

31:                                               ; preds = %30
  %32 = load i32, i32* %6, align 4
  %33 = add nsw i32 %32, 1
  store i32 %33, i32* %6, align 4
  br label %15

34:                                               ; preds = %15
  store i32 2, i32* %3, align 4
  br label %35

35:                                               ; preds = %34, %29
  %36 = load i32, i32* %3, align 4
  ret i32 %36
}

; Function Attrs: noinline nounwind uwtable
define dso_local i32 @main() #0 {
  %1 = alloca i32, align 4
  %2 = alloca i32, align 4
  %3 = alloca i32, align 4
  store i32 0, i32* %1, align 4
  %4 = call i32 (i8*, ...) @__isoc99_scanf(i8* getelementptr inbounds ([6 x i8], [6 x i8]* @.str, i64 0, i64 0), i32* @h, i32* @l)
  store i32 0, i32* %2, align 4
  br label %5

5:                                                ; preds = %26, %0
  %6 = load i32, i32* %2, align 4
  %7 = load i32, i32* @h, align 4
  %8 = icmp slt i32 %6, %7
  br i1 %8, label %9, label %29

9:                                                ; preds = %5
  store i32 0, i32* %3, align 4
  br label %10

10:                                               ; preds = %22, %9
  %11 = load i32, i32* %3, align 4
  %12 = load i32, i32* @l, align 4
  %13 = icmp slt i32 %11, %12
  br i1 %13, label %14, label %25

14:                                               ; preds = %10
  %15 = load i32, i32* %2, align 4
  %16 = sext i32 %15 to i64
  %17 = getelementptr inbounds [10 x [10 x i32]], [10 x [10 x i32]]* @a, i64 0, i64 %16
  %18 = load i32, i32* %3, align 4
  %19 = sext i32 %18 to i64
  %20 = getelementptr inbounds [10 x i32], [10 x i32]* %17, i64 0, i64 %19
  %21 = call i32 (i8*, ...) @__isoc99_scanf(i8* getelementptr inbounds ([3 x i8], [3 x i8]* @.str.1, i64 0, i64 0), i32* %20)
  br label %22

22:                                               ; preds = %14
  %23 = load i32, i32* %3, align 4
  %24 = add nsw i32 %23, 1
  store i32 %24, i32* %3, align 4
  br label %10

25:                                               ; preds = %10
  br label %26

26:                                               ; preds = %25
  %27 = load i32, i32* %2, align 4
  %28 = add nsw i32 %27, 1
  store i32 %28, i32* %2, align 4
  br label %5

29:                                               ; preds = %5
  store i32 0, i32* %2, align 4
  br label %30

30:                                               ; preds = %56, %29
  %31 = load i32, i32* %2, align 4
  %32 = load i32, i32* @h, align 4
  %33 = icmp slt i32 %31, %32
  br i1 %33, label %34, label %59

34:                                               ; preds = %30
  store i32 0, i32* %3, align 4
  br label %35

35:                                               ; preds = %52, %34
  %36 = load i32, i32* %3, align 4
  %37 = load i32, i32* @l, align 4
  %38 = icmp slt i32 %36, %37
  br i1 %38, label %39, label %55

39:                                               ; preds = %35
  %40 = load i32, i32* %2, align 4
  %41 = load i32, i32* %3, align 4
  %42 = call i32 @find1(i32 %40, i32 %41)
  %43 = load i32, i32* %2, align 4
  %44 = load i32, i32* %3, align 4
  %45 = call i32 @find2(i32 %43, i32 %44)
  %46 = icmp eq i32 %42, %45
  br i1 %46, label %47, label %51

47:                                               ; preds = %39
  %48 = load i32, i32* %2, align 4
  %49 = load i32, i32* %3, align 4
  %50 = call i32 (i8*, ...) @printf(i8* getelementptr inbounds ([6 x i8], [6 x i8]* @.str.2, i64 0, i64 0), i32 %48, i32 %49)
  store i32 0, i32* %1, align 4
  br label %61

51:                                               ; preds = %39
  br label %52

52:                                               ; preds = %51
  %53 = load i32, i32* %3, align 4
  %54 = add nsw i32 %53, 1
  store i32 %54, i32* %3, align 4
  br label %35

55:                                               ; preds = %35
  br label %56

56:                                               ; preds = %55
  %57 = load i32, i32* %2, align 4
  %58 = add nsw i32 %57, 1
  store i32 %58, i32* %2, align 4
  br label %30

59:                                               ; preds = %30
  %60 = call i32 (i8*, ...) @printf(i8* getelementptr inbounds ([3 x i8], [3 x i8]* @.str.3, i64 0, i64 0))
  store i32 0, i32* %1, align 4
  br label %61

61:                                               ; preds = %59, %47
  %62 = load i32, i32* %1, align 4
  ret i32 %62
}

declare dso_local i32 @__isoc99_scanf(i8*, ...) #1

declare dso_local i32 @printf(i8*, ...) #1


!llvm.module.flags = !{!0}
!llvm.ident = !{!1}

!0 = !{i32 1, !"wchar_size", i32 4}
!1 = !{!"clang version 10.0.0-4ubuntu1 "}
